target datalayout = "e-m:e-p270:32:32-p271:32:32-p272:64:64-i64:64-i128:128-f80:128-n8:16:32:64-S128"
target triple = "x86_64-pc-linux-gnu"

%struct.FunctionCallInfoBaseData = type { ptr, ptr, ptr, i32, i8, i16, [0 x %struct.NullableDatum] }
%struct.NullableDatum = type { i64, i8 }

@.str.2 = private unnamed_addr constant [6 x i8] c"int.c\00", align 1
@.str.7 = private unnamed_addr constant [21 x i8] c"integer out of range\00", align 1
@__func__.int4gcd_internal = private unnamed_addr constant [17 x i8] c"int4gcd_internal\00", align 1

; Function Attrs: inlinehint nounwind uwtable
define internal i64 @Int32GetDatum(i32 noundef %0) #2 {
  %2 = alloca i32, align 4
  store i32 %0, ptr %2, align 4
  %3 = load i32, ptr %2, align 4
  %4 = sext i32 %3 to i64
  ret i64 %4
}

; Function Attrs: nounwind uwtable
define internal i32 @int4gcd_internal(i32 noundef %0, i32 noundef %1) #0 {
  %3 = alloca i32, align 4
  %4 = alloca i32, align 4
  %5 = alloca i32, align 4
  %6 = alloca i32, align 4
  %7 = alloca i32, align 4
  %8 = alloca i32, align 4
  %9 = alloca i32, align 4
  store i32 %0, ptr %4, align 4
  store i32 %1, ptr %5, align 4
  call void @llvm.lifetime.start.p0(i64 4, ptr %6) #10
  call void @llvm.lifetime.start.p0(i64 4, ptr %7) #10
  call void @llvm.lifetime.start.p0(i64 4, ptr %8) #10
  %10 = load i32, ptr %4, align 4
  %11 = icmp slt i32 %10, 0
  br i1 %11, label %12, label %14

12:                                               ; preds = %2
  %13 = load i32, ptr %4, align 4
  br label %17

14:                                               ; preds = %2
  %15 = load i32, ptr %4, align 4
  %16 = sub i32 0, %15
  br label %17

17:                                               ; preds = %14, %12
  %18 = phi i32 [ %13, %12 ], [ %16, %14 ]
  store i32 %18, ptr %7, align 4
  %19 = load i32, ptr %5, align 4
  %20 = icmp slt i32 %19, 0
  br i1 %20, label %21, label %23

21:                                               ; preds = %17
  %22 = load i32, ptr %5, align 4
  br label %26

23:                                               ; preds = %17
  %24 = load i32, ptr %5, align 4
  %25 = sub i32 0, %24
  br label %26

26:                                               ; preds = %23, %21
  %27 = phi i32 [ %22, %21 ], [ %25, %23 ]
  store i32 %27, ptr %8, align 4
  %28 = load i32, ptr %7, align 4
  %29 = load i32, ptr %8, align 4
  %30 = icmp sgt i32 %28, %29
  br i1 %30, label %31, label %35

31:                                               ; preds = %26
  %32 = load i32, ptr %4, align 4
  store i32 %32, ptr %6, align 4
  %33 = load i32, ptr %5, align 4
  store i32 %33, ptr %4, align 4
  %34 = load i32, ptr %6, align 4
  store i32 %34, ptr %5, align 4
  br label %35

35:                                               ; preds = %31, %26
  %36 = load i32, ptr %4, align 4
  %37 = icmp eq i32 %36, -2147483648
  br i1 %37, label %38, label %61

38:                                               ; preds = %35
  %39 = load i32, ptr %5, align 4
  %40 = icmp eq i32 %39, 0
  br i1 %40, label %44, label %41

41:                                               ; preds = %38
  %42 = load i32, ptr %5, align 4
  %43 = icmp eq i32 %42, -2147483648
  br i1 %43, label %44, label %56

44:                                               ; preds = %41, %38
  br label %45

45:                                               ; preds = %44
  br i1 true, label %46, label %48

46:                                               ; preds = %45
  %47 = call zeroext i1 @errstart_cold(i32 noundef 21, ptr noundef null) #12
  br i1 %47, label %50, label %53

48:                                               ; preds = %45
  %49 = call zeroext i1 @errstart(i32 noundef 21, ptr noundef null)
  br i1 %49, label %50, label %53

50:                                               ; preds = %48, %46
  %51 = call i32 @errcode(i32 noundef 50331778)
  %52 = call i32 (ptr, ...) @errmsg(ptr noundef @.str.7)
  call void @errfinish(ptr noundef @.str.2, i32 noundef 1263, ptr noundef @__func__.int4gcd_internal)
  br label %53

53:                                               ; preds = %50, %48, %46
  unreachable

54:                                               ; No predecessors!
  br label %55

55:                                               ; preds = %54
  br label %56

56:                                               ; preds = %55, %41
  %57 = load i32, ptr %5, align 4
  %58 = icmp eq i32 %57, -1
  br i1 %58, label %59, label %60

59:                                               ; preds = %56
  store i32 1, ptr %3, align 4
  store i32 1, ptr %9, align 4
  br label %79

60:                                               ; preds = %56
  br label %61

61:                                               ; preds = %60, %35
  br label %62

62:                                               ; preds = %65, %61
  %63 = load i32, ptr %5, align 4
  %64 = icmp ne i32 %63, 0
  br i1 %64, label %65, label %71

65:                                               ; preds = %62
  %66 = load i32, ptr %5, align 4
  store i32 %66, ptr %6, align 4
  %67 = load i32, ptr %4, align 4
  %68 = load i32, ptr %5, align 4
  %69 = srem i32 %67, %68
  store i32 %69, ptr %5, align 4
  %70 = load i32, ptr %6, align 4
  store i32 %70, ptr %4, align 4
  br label %62, !llvm.loop !9

71:                                               ; preds = %62
  %72 = load i32, ptr %4, align 4
  %73 = icmp slt i32 %72, 0
  br i1 %73, label %74, label %77

74:                                               ; preds = %71
  %75 = load i32, ptr %4, align 4
  %76 = sub i32 0, %75
  store i32 %76, ptr %4, align 4
  br label %77

77:                                               ; preds = %74, %71
  %78 = load i32, ptr %4, align 4
  store i32 %78, ptr %3, align 4
  store i32 1, ptr %9, align 4
  br label %79

79:                                               ; preds = %77, %59
  call void @llvm.lifetime.end.p0(i64 4, ptr %8) #10
  call void @llvm.lifetime.end.p0(i64 4, ptr %7) #10
  call void @llvm.lifetime.end.p0(i64 4, ptr %6) #10
  %80 = load i32, ptr %3, align 4
  ret i32 %80
}

; Function Attrs: inlinehint nounwind uwtable
define internal i32 @DatumGetInt32(i64 noundef %0) #2 {
  %2 = alloca i64, align 8
  store i64 %0, ptr %2, align 8
  %3 = load i64, ptr %2, align 8
  %4 = trunc i64 %3 to i32
  ret i32 %4
}

; Function Attrs: nounwind uwtable
define dso_local i64 @int4gcd(ptr noundef %0) #0 {
  %2 = alloca ptr, align 8
  %3 = alloca i32, align 4
  %4 = alloca i32, align 4
  %5 = alloca i32, align 4
  store ptr %0, ptr %2, align 8
  call void @llvm.lifetime.start.p0(i64 4, ptr %3) #10
  %6 = load ptr, ptr %2, align 8
  %7 = getelementptr inbounds nuw %struct.FunctionCallInfoBaseData, ptr %6, i32 0, i32 6
  %8 = getelementptr inbounds [0 x %struct.NullableDatum], ptr %7, i64 0, i64 0
  %9 = getelementptr inbounds nuw %struct.NullableDatum, ptr %8, i32 0, i32 0
  %10 = load i64, ptr %9, align 8
  %11 = call i32 @DatumGetInt32(i64 noundef %10)
  store i32 %11, ptr %3, align 4
  call void @llvm.lifetime.start.p0(i64 4, ptr %4) #10
  %12 = load ptr, ptr %2, align 8
  %13 = getelementptr inbounds nuw %struct.FunctionCallInfoBaseData, ptr %12, i32 0, i32 6
  %14 = getelementptr inbounds [0 x %struct.NullableDatum], ptr %13, i64 0, i64 1
  %15 = getelementptr inbounds nuw %struct.NullableDatum, ptr %14, i32 0, i32 0
  %16 = load i64, ptr %15, align 8
  %17 = call i32 @DatumGetInt32(i64 noundef %16)
  store i32 %17, ptr %4, align 4
  call void @llvm.lifetime.start.p0(i64 4, ptr %5) #10
  %18 = load i32, ptr %3, align 4
  %19 = load i32, ptr %4, align 4
  %20 = call i32 @int4gcd_internal(i32 noundef %18, i32 noundef %19)
  store i32 %20, ptr %5, align 4
  %21 = load i32, ptr %5, align 4
  %22 = call i64 @Int32GetDatum(i32 noundef %21)
  call void @llvm.lifetime.end.p0(i64 4, ptr %5) #10
  call void @llvm.lifetime.end.p0(i64 4, ptr %4) #10
  call void @llvm.lifetime.end.p0(i64 4, ptr %3) #10
  ret i64 %22
}