; Function Attrs: nounwind uwtable
define dso_local range(i64 -2147483648, 2147483648) i64 @int4gcd(ptr noundef readonly captures(none) %0) local_unnamed_addr #0 {
  %2 = getelementptr inbounds nuw i8, ptr %0, i64 32
  %3 = load i64, ptr %2, align 8
  %4 = trunc i64 %3 to i32
  %5 = getelementptr inbounds nuw i8, ptr %0, i64 48
  %6 = load i64, ptr %5, align 8
  %7 = trunc i64 %6 to i32
  %8 = tail call i32 @llvm.abs.i32(i32 %4, i1 false)
  %9 = sub i32 0, %8
  %10 = tail call i32 @llvm.abs.i32(i32 %7, i1 false)
  %11 = sub i32 0, %10
  %12 = icmp sgt i32 %9, %11
  %spec.select.i = select i1 %12, i32 %4, i32 %7
  %spec.select28.i = select i1 %12, i32 %7, i32 %4
  %13 = icmp eq i32 %spec.select28.i, -2147483648
  br i1 %13, label %14, label %21

14:                                               ; preds = %1
  %15 = and i32 %spec.select.i, 2147483647
  %or.cond.i = icmp eq i32 %15, 0
  br i1 %or.cond.i, label %16, label %20

16:                                               ; preds = %14
  %17 = tail call zeroext i1 @errstart_cold(i32 noundef 21, ptr noundef null) #15
  tail call void @llvm.assume(i1 %17)
  %18 = tail call i32 @errcode(i32 noundef 50331778) #13
  %19 = tail call i32 (ptr, ...) @errmsg(ptr noundef nonnull @.str.7) #13
  tail call void @errfinish(ptr noundef nonnull @.str.2, i32 noundef 1263, ptr noundef nonnull @__func__.int4gcd_internal) #13
  unreachable

20:                                               ; preds = %14
  %cond.i = icmp eq i32 %spec.select.i, -1
  br i1 %cond.i, label %int4gcd_internal.exit, label %.lr.ph.i.preheader

21:                                               ; preds = %1
  %.not30.i = icmp eq i32 %spec.select.i, 0
  br i1 %.not30.i, label %._crit_edge.i, label %.lr.ph.i.preheader

.lr.ph.i.preheader:                               ; preds = %21, %20
  br label %.lr.ph.i

.lr.ph.i:                                         ; preds = %.lr.ph.i.preheader, %.lr.ph.i
  %.132.i = phi i32 [ %.12731.i, %.lr.ph.i ], [ %spec.select28.i, %.lr.ph.i.preheader ]
  %.12731.i = phi i32 [ %22, %.lr.ph.i ], [ %spec.select.i, %.lr.ph.i.preheader ]
  %22 = srem i32 %.132.i, %.12731.i
  %.not.i = icmp eq i32 %22, 0
  br i1 %.not.i, label %._crit_edge.i, label %.lr.ph.i, !llvm.loop !16

._crit_edge.i:                                    ; preds = %.lr.ph.i, %21
  %.1.lcssa.i = phi i32 [ %spec.select28.i, %21 ], [ %.12731.i, %.lr.ph.i ]
  %spec.select29.i = tail call i32 @llvm.abs.i32(i32 %.1.lcssa.i, i1 false)
  %23 = sext i32 %spec.select29.i to i64
  br label %int4gcd_internal.exit

int4gcd_internal.exit:                            ; preds = %20, %._crit_edge.i
  %.0.i = phi i64 [ %23, %._crit_edge.i ], [ 1, %20 ]
  ret i64 %.0.i
}